; ModuleID = '9/224.c'
source_filename = "9/224.c"
target datalayout = "e-m:e-p270:32:32-p271:32:32-p272:64:64-i64:64-f80:128-n8:16:32:64-S128"
target triple = "x86_64-pc-linux-gnu"

%struct.student = type { [10 x i8], i32, %struct.student* }

@.str = private unnamed_addr constant [6 x i8] c"%s %d\00", align 1
@.str.1 = private unnamed_addr constant [3 x i8] c"%d\00", align 1
@.str.2 = private unnamed_addr constant [4 x i8] c"%s\0A\00", align 1

; Function Attrs: noinline nounwind uwtable
define dso_local %struct.student* @create(i32 %0) #0 {
  %2 = alloca i32, align 4
  %3 = alloca %struct.student*, align 8
  %4 = alloca %struct.student*, align 8
  %5 = alloca %struct.student*, align 8
  %6 = alloca i32, align 4
  store i32 %0, i32* %2, align 4
  %7 = call noalias i8* @malloc(i64 100) #3
  %8 = bitcast i8* %7 to %struct.student*
  store %struct.student* %8, %struct.student** %4, align 8
  %9 = load %struct.student*, %struct.student** %4, align 8
  %10 = getelementptr inbounds %struct.student, %struct.student* %9, i32 0, i32 0
  %11 = getelementptr inbounds [10 x i8], [10 x i8]* %10, i64 0, i64 0
  %12 = load %struct.student*, %struct.student** %4, align 8
  %13 = getelementptr inbounds %struct.student, %struct.student* %12, i32 0, i32 1
  %14 = call i32 (i8*, ...) @__isoc99_scanf(i8* getelementptr inbounds ([6 x i8], [6 x i8]* @.str, i64 0, i64 0), i8* %11, i32* %13)
  %15 = load %struct.student*, %struct.student** %4, align 8
  %16 = getelementptr inbounds %struct.student, %struct.student* %15, i32 0, i32 2
  store %struct.student* null, %struct.student** %16, align 8
  %17 = load %struct.student*, %struct.student** %4, align 8
  store %struct.student* %17, %struct.student** %3, align 8
  %18 = load %struct.student*, %struct.student** %4, align 8
  store %struct.student* %18, %struct.student** %5, align 8
  store i32 1, i32* %6, align 4
  br label %19

19:                                               ; preds = %39, %1
  %20 = load i32, i32* %6, align 4
  %21 = load i32, i32* %2, align 4
  %22 = sub nsw i32 %21, 1
  %23 = icmp sle i32 %20, %22
  br i1 %23, label %24, label %42

24:                                               ; preds = %19
  %25 = call noalias i8* @malloc(i64 100) #3
  %26 = bitcast i8* %25 to %struct.student*
  store %struct.student* %26, %struct.student** %4, align 8
  %27 = load %struct.student*, %struct.student** %4, align 8
  %28 = getelementptr inbounds %struct.student, %struct.student* %27, i32 0, i32 0
  %29 = getelementptr inbounds [10 x i8], [10 x i8]* %28, i64 0, i64 0
  %30 = load %struct.student*, %struct.student** %4, align 8
  %31 = getelementptr inbounds %struct.student, %struct.student* %30, i32 0, i32 1
  %32 = call i32 (i8*, ...) @__isoc99_scanf(i8* getelementptr inbounds ([6 x i8], [6 x i8]* @.str, i64 0, i64 0), i8* %29, i32* %31)
  %33 = load %struct.student*, %struct.student** %4, align 8
  %34 = getelementptr inbounds %struct.student, %struct.student* %33, i32 0, i32 2
  store %struct.student* null, %struct.student** %34, align 8
  %35 = load %struct.student*, %struct.student** %4, align 8
  %36 = load %struct.student*, %struct.student** %5, align 8
  %37 = getelementptr inbounds %struct.student, %struct.student* %36, i32 0, i32 2
  store %struct.student* %35, %struct.student** %37, align 8
  %38 = load %struct.student*, %struct.student** %4, align 8
  store %struct.student* %38, %struct.student** %5, align 8
  br label %39

39:                                               ; preds = %24
  %40 = load i32, i32* %6, align 4
  %41 = add nsw i32 %40, 1
  store i32 %41, i32* %6, align 4
  br label %19

42:                                               ; preds = %19
  %43 = load %struct.student*, %struct.student** %3, align 8
  ret %struct.student* %43
}

; Function Attrs: nounwind
declare dso_local noalias i8* @malloc(i64) #1

declare dso_local i32 @__isoc99_scanf(i8*, ...) #2

; Function Attrs: noinline nounwind uwtable
define dso_local %struct.student* @max(%struct.student* %0) #0 {
  %2 = alloca %struct.student*, align 8
  %3 = alloca %struct.student*, align 8
  %4 = alloca %struct.student*, align 8
  store %struct.student* %0, %struct.student** %2, align 8
  %5 = load %struct.student*, %struct.student** %2, align 8
  store %struct.student* %5, %struct.student** %4, align 8
  %6 = load %struct.student*, %struct.student** %2, align 8
  %7 = getelementptr inbounds %struct.student, %struct.student* %6, i32 0, i32 2
  %8 = load %struct.student*, %struct.student** %7, align 8
  store %struct.student* %8, %struct.student** %3, align 8
  br label %9

9:                                                ; preds = %22, %1
  %10 = load %struct.student*, %struct.student** %3, align 8
  %11 = icmp ne %struct.student* %10, null
  br i1 %11, label %12, label %26

12:                                               ; preds = %9
  %13 = load %struct.student*, %struct.student** %3, align 8
  %14 = getelementptr inbounds %struct.student, %struct.student* %13, i32 0, i32 1
  %15 = load i32, i32* %14, align 4
  %16 = load %struct.student*, %struct.student** %4, align 8
  %17 = getelementptr inbounds %struct.student, %struct.student* %16, i32 0, i32 1
  %18 = load i32, i32* %17, align 4
  %19 = icmp sgt i32 %15, %18
  br i1 %19, label %20, label %22

20:                                               ; preds = %12
  %21 = load %struct.student*, %struct.student** %3, align 8
  store %struct.student* %21, %struct.student** %4, align 8
  br label %22

22:                                               ; preds = %20, %12
  %23 = load %struct.student*, %struct.student** %3, align 8
  %24 = getelementptr inbounds %struct.student, %struct.student* %23, i32 0, i32 2
  %25 = load %struct.student*, %struct.student** %24, align 8
  store %struct.student* %25, %struct.student** %3, align 8
  br label %9

26:                                               ; preds = %9
  %27 = load %struct.student*, %struct.student** %4, align 8
  ret %struct.student* %27
}

; Function Attrs: noinline nounwind uwtable
define dso_local void @main() #0 {
  %1 = alloca i32, align 4
  %2 = alloca %struct.student*, align 8
  %3 = alloca %struct.student*, align 8
  %4 = alloca %struct.student*, align 8
  %5 = call i32 (i8*, ...) @__isoc99_scanf(i8* getelementptr inbounds ([3 x i8], [3 x i8]* @.str.1, i64 0, i64 0), i32* %1)
  %6 = load i32, i32* %1, align 4
  %7 = call %struct.student* @create(i32 %6)
  store %struct.student* %7, %struct.student** %2, align 8
  %8 = load %struct.student*, %struct.student** %2, align 8
  store %struct.student* %8, %struct.student** %4, align 8
  br label %9

9:                                                ; preds = %24, %0
  %10 = load %struct.student*, %struct.student** %4, align 8
  %11 = call %struct.student* @max(%struct.student* %10)
  store %struct.student* %11, %struct.student** %3, align 8
  %12 = load %struct.student*, %struct.student** %3, align 8
  %13 = getelementptr inbounds %struct.student, %struct.student* %12, i32 0, i32 1
  %14 = load i32, i32* %13, align 4
  %15 = icmp sge i32 %14, 60
  br i1 %15, label %16, label %23

16:                                               ; preds = %9
  %17 = load %struct.student*, %struct.student** %3, align 8
  %18 = getelementptr inbounds %struct.student, %struct.student* %17, i32 0, i32 0
  %19 = getelementptr inbounds [10 x i8], [10 x i8]* %18, i64 0, i64 0
  %20 = call i32 (i8*, ...) @printf(i8* getelementptr inbounds ([4 x i8], [4 x i8]* @.str.2, i64 0, i64 0), i8* %19)
  %21 = load %struct.student*, %struct.student** %3, align 8
  %22 = getelementptr inbounds %struct.student, %struct.student* %21, i32 0, i32 1
  store i32 -1, i32* %22, align 4
  br label %24

23:                                               ; preds = %9
  br label %25

24:                                               ; preds = %16
  br label %9

25:                                               ; preds = %23
  %26 = load %struct.student*, %struct.student** %2, align 8
  store %struct.student* %26, %struct.student** %4, align 8
  br label %27

27:                                               ; preds = %40, %25
  %28 = load %struct.student*, %struct.student** %4, align 8
  %29 = icmp ne %struct.student* %28, null
  br i1 %29, label %30, label %44

30:                                               ; preds = %27
  %31 = load %struct.student*, %struct.student** %4, align 8
  %32 = getelementptr inbounds %struct.student, %struct.student* %31, i32 0, i32 1
  %33 = load i32, i32* %32, align 4
  %34 = icmp ne i32 %33, -1
  br i1 %34, label %35, label %40

35:                                               ; preds = %30
  %36 = load %struct.student*, %struct.student** %4, align 8
  %37 = getelementptr inbounds %struct.student, %struct.student* %36, i32 0, i32 0
  %38 = getelementptr inbounds [10 x i8], [10 x i8]* %37, i64 0, i64 0
  %39 = call i32 (i8*, ...) @printf(i8* getelementptr inbounds ([4 x i8], [4 x i8]* @.str.2, i64 0, i64 0), i8* %38)
  br label %40

40:                                               ; preds = %35, %30
  %41 = load %struct.student*, %struct.student** %4, align 8
  %42 = getelementptr inbounds %struct.student, %struct.student* %41, i32 0, i32 2
  %43 = load %struct.student*, %struct.student** %42, align 8
  store %struct.student* %43, %struct.student** %4, align 8
  br label %27

44:                                               ; preds = %27
  ret void
}

declare dso_local i32 @printf(i8*, ...) #2


!llvm.module.flags = !{!0}
!llvm.ident = !{!1}

!0 = !{i32 1, !"wchar_size", i32 4}
!1 = !{!"clang version 10.0.0-4ubuntu1 "}
